target datalayout = "e-m:e-p270:32:32-p271:32:32-p272:64:64-i64:64-i128:128-f80:128-n8:16:32:64-S128"
target triple = "x86_64-pc-linux-gnu"

%"class.zxing::Ref.9" = type { ptr }

; Function Attrs: mustprogress nounwind uwtable
define linkonce_odr hidden noundef ptr @_ZNK5zxing3RefINS_9BitMatrixEEptEv(ptr noundef nonnull align 8 dereferenceable(8) %0) #4 comdat align 2 {
  %2 = alloca ptr, align 8
  store ptr %0, ptr %2, align 8, !tbaa !69
  %3 = load ptr, ptr %2, align 8
  %4 = getelementptr inbounds nuw %"class.zxing::Ref.9", ptr %3, i32 0, i32 0
  %5 = load ptr, ptr %4, align 8, !tbaa !73
  ret ptr %5
}

; Function Attrs: mustprogress nounwind uwtable
define linkonce_odr hidden noundef nonnull align 8 dereferenceable(346) ptr @_ZN5zxing3RefINS_9BitMatrixEEdeEv(ptr noundef nonnull align 8 dereferenceable(8) %0) #4 comdat align 2 {
  %2 = alloca ptr, align 8
  store ptr %0, ptr %2, align 8, !tbaa !69
  %3 = load ptr, ptr %2, align 8
  %4 = getelementptr inbounds nuw %"class.zxing::Ref.9", ptr %3, i32 0, i32 0
  %5 = load ptr, ptr %4, align 8, !tbaa !73
  ret ptr %5
}

; Function Attrs: mustprogress uwtable
define hidden void @_ZN5zxing6qrcode12QRCodeReader15initIntegralOldEPjNS_3RefINS_9BitMatrixEEE(ptr noundef %0, ptr noundef %1) #3 align 2 {
  %3 = alloca ptr, align 8
  %4 = alloca ptr, align 8
  %5 = alloca ptr, align 8
  %6 = alloca i32, align 4
  %7 = alloca i32, align 4
  %8 = alloca ptr, align 8
  %9 = alloca ptr, align 8
  %10 = alloca i32, align 4
  %11 = alloca i32, align 4
  %12 = alloca i32, align 4
  %13 = alloca i32, align 4
  %14 = alloca i32, align 4
  %15 = alloca i32, align 4
  store ptr %0, ptr %3, align 8, !tbaa !206
  store ptr %1, ptr %4, align 8, !tbaa !69
  call void @llvm.lifetime.start.p0(i64 8, ptr %5) #2
  %16 = call noundef nonnull align 8 dereferenceable(346) ptr @_ZN5zxing3RefINS_9BitMatrixEEdeEv(ptr noundef nonnull align 8 dereferenceable(8) %1)
  store ptr %16, ptr %5, align 8, !tbaa !71
  call void @llvm.lifetime.start.p0(i64 4, ptr %6) #2
  %17 = call noundef ptr @_ZNK5zxing3RefINS_9BitMatrixEEptEv(ptr noundef nonnull align 8 dereferenceable(8) %1)
  %18 = call noundef i32 @_ZNK5zxing9BitMatrix8getWidthEv(ptr noundef nonnull align 8 dereferenceable(346) %17)
  store i32 %18, ptr %6, align 4, !tbaa !75
  call void @llvm.lifetime.start.p0(i64 4, ptr %7) #2
  %19 = call noundef ptr @_ZNK5zxing3RefINS_9BitMatrixEEptEv(ptr noundef nonnull align 8 dereferenceable(8) %1)
  %20 = call noundef i32 @_ZNK5zxing9BitMatrix9getHeightEv(ptr noundef nonnull align 8 dereferenceable(346) %19)
  store i32 %20, ptr %7, align 4, !tbaa !75
  call void @llvm.lifetime.start.p0(i64 8, ptr %8) #2
  store ptr null, ptr %8, align 8, !tbaa !135
  %21 = load ptr, ptr %5, align 8, !tbaa !71
  %22 = call noundef ptr @_ZN5zxing9BitMatrix13getRowBoolPtrEi(ptr noundef nonnull align 8 dereferenceable(346) %21, i32 noundef 0)
  store ptr %22, ptr %8, align 8, !tbaa !135
  %23 = load ptr, ptr %8, align 8, !tbaa !135
  %24 = getelementptr inbounds i8, ptr %23, i64 0
  %25 = load i8, ptr %24, align 1, !tbaa !45, !range !46, !noundef !47
  %26 = trunc i8 %25 to i1
  %27 = zext i1 %26 to i32
  %28 = load ptr, ptr %3, align 8, !tbaa !206
  %29 = getelementptr inbounds i32, ptr %28, i64 0
  store i32 %27, ptr %29, align 4, !tbaa !75
  call void @llvm.lifetime.start.p0(i64 8, ptr %9) #2
  %30 = load i32, ptr %6, align 4, !tbaa !75
  %31 = sext i32 %30 to i64
  %32 = call { i64, i1 } @llvm.umul.with.overflow.i64(i64 %31, i64 4)
  %33 = extractvalue { i64, i1 } %32, 1
  %34 = extractvalue { i64, i1 } %32, 0
  %35 = select i1 %33, i64 -1, i64 %34
  %36 = call noalias noundef nonnull ptr @_Znam(i64 noundef %35) #18
  store ptr %36, ptr %9, align 8, !tbaa !206
  %37 = load ptr, ptr %9, align 8, !tbaa !206
  %38 = load i32, ptr %6, align 4, !tbaa !75
  %39 = sext i32 %38 to i64
  %40 = mul i64 %39, 4
  call void @llvm.memset.p0.i64(ptr align 4 %37, i8 0, i64 %40, i1 false)
  %41 = load ptr, ptr %8, align 8, !tbaa !135
  %42 = getelementptr inbounds i8, ptr %41, i64 0
  %43 = load i8, ptr %42, align 1, !tbaa !45, !range !46, !noundef !47
  %44 = trunc i8 %43 to i1
  %45 = zext i1 %44 to i32
  %46 = load ptr, ptr %3, align 8, !tbaa !206
  %47 = getelementptr inbounds i32, ptr %46, i64 0
  store i32 %45, ptr %47, align 4, !tbaa !75
  call void @llvm.lifetime.start.p0(i64 4, ptr %10) #2
  store i32 1, ptr %10, align 4, !tbaa !75
  br label %48

48:                                               ; preds = %85, %2
  %49 = load i32, ptr %10, align 4, !tbaa !75
  %50 = load i32, ptr %6, align 4, !tbaa !75
  %51 = icmp slt i32 %49, %50
  br i1 %51, label %53, label %52

52:                                               ; preds = %48
  call void @llvm.lifetime.end.p0(i64 4, ptr %10) #2
  br label %88

53:                                               ; preds = %48
  %54 = load ptr, ptr %3, align 8, !tbaa !206
  %55 = load i32, ptr %10, align 4, !tbaa !75
  %56 = sub nsw i32 %55, 1
  %57 = sext i32 %56 to i64
  %58 = getelementptr inbounds i32, ptr %54, i64 %57
  %59 = load i32, ptr %58, align 4, !tbaa !75
  %60 = load ptr, ptr %8, align 8, !tbaa !135
  %61 = load i32, ptr %10, align 4, !tbaa !75
  %62 = sext i32 %61 to i64
  %63 = getelementptr inbounds i8, ptr %60, i64 %62
  %64 = load i8, ptr %63, align 1, !tbaa !45, !range !46, !noundef !47
  %65 = trunc i8 %64 to i1
  %66 = zext i1 %65 to i32
  %67 = add i32 %59, %66
  %68 = load ptr, ptr %3, align 8, !tbaa !206
  %69 = load i32, ptr %10, align 4, !tbaa !75
  %70 = sext i32 %69 to i64
  %71 = getelementptr inbounds i32, ptr %68, i64 %70
  store i32 %67, ptr %71, align 4, !tbaa !75
  %72 = load ptr, ptr %8, align 8, !tbaa !135
  %73 = load i32, ptr %10, align 4, !tbaa !75
  %74 = sext i32 %73 to i64
  %75 = getelementptr inbounds i8, ptr %72, i64 %74
  %76 = load i8, ptr %75, align 1, !tbaa !45, !range !46, !noundef !47
  %77 = trunc i8 %76 to i1
  %78 = zext i1 %77 to i32
  %79 = load ptr, ptr %9, align 8, !tbaa !206
  %80 = load i32, ptr %10, align 4, !tbaa !75
  %81 = sext i32 %80 to i64
  %82 = getelementptr inbounds i32, ptr %79, i64 %81
  %83 = load i32, ptr %82, align 4, !tbaa !75
  %84 = add nsw i32 %83, %78
  store i32 %84, ptr %82, align 4, !tbaa !75
  br label %85

85:                                               ; preds = %53
  %86 = load i32, ptr %10, align 4, !tbaa !75
  %87 = add nsw i32 %86, 1
  store i32 %87, ptr %10, align 4, !tbaa !75
  br label %48, !llvm.loop !227

88:                                               ; preds = %52
  call void @llvm.lifetime.start.p0(i64 4, ptr %11) #2
  %89 = load i32, ptr %6, align 4, !tbaa !75
  store i32 %89, ptr %11, align 4, !tbaa !75
  call void @llvm.lifetime.start.p0(i64 4, ptr %12) #2
  store i32 0, ptr %12, align 4, !tbaa !75
  call void @llvm.lifetime.start.p0(i64 4, ptr %13) #2
  store i32 1, ptr %13, align 4, !tbaa !75
  br label %90

90:                                               ; preds = %162, %88
  %91 = load i32, ptr %13, align 4, !tbaa !75
  %92 = load i32, ptr %7, align 4, !tbaa !75
  %93 = icmp slt i32 %91, %92
  br i1 %93, label %95, label %94

94:                                               ; preds = %90
  store i32 5, ptr %14, align 4
  call void @llvm.lifetime.end.p0(i64 4, ptr %13) #2
  br label %165

95:                                               ; preds = %90
  %96 = load i32, ptr %13, align 4, !tbaa !75
  %97 = load i32, ptr %6, align 4, !tbaa !75
  %98 = mul nsw i32 %96, %97
  store i32 %98, ptr %11, align 4, !tbaa !75
  %99 = load ptr, ptr %5, align 8, !tbaa !71
  %100 = load i32, ptr %13, align 4, !tbaa !75
  %101 = call noundef ptr @_ZN5zxing9BitMatrix13getRowBoolPtrEi(ptr noundef nonnull align 8 dereferenceable(346) %99, i32 noundef %100)
  store ptr %101, ptr %8, align 8, !tbaa !135
  %102 = load ptr, ptr %3, align 8, !tbaa !206
  %103 = load i32, ptr %11, align 4, !tbaa !75
  %104 = load i32, ptr %6, align 4, !tbaa !75
  %105 = sub nsw i32 %103, %104
  %106 = sext i32 %105 to i64
  %107 = getelementptr inbounds i32, ptr %102, i64 %106
  %108 = load i32, ptr %107, align 4, !tbaa !75
  %109 = load ptr, ptr %8, align 8, !tbaa !135
  %110 = getelementptr inbounds i8, ptr %109, i64 0
  %111 = load i8, ptr %110, align 1, !tbaa !45, !range !46, !noundef !47
  %112 = trunc i8 %111 to i1
  %113 = zext i1 %112 to i32
  %114 = add i32 %108, %113
  %115 = load ptr, ptr %3, align 8, !tbaa !206
  %116 = load i32, ptr %11, align 4, !tbaa !75
  %117 = sext i32 %116 to i64
  %118 = getelementptr inbounds i32, ptr %115, i64 %117
  store i32 %114, ptr %118, align 4, !tbaa !75
  %119 = load i32, ptr %11, align 4, !tbaa !75
  %120 = add nsw i32 %119, 1
  store i32 %120, ptr %11, align 4, !tbaa !75
  call void @llvm.lifetime.start.p0(i64 4, ptr %15) #2
  store i32 1, ptr %15, align 4, !tbaa !75
  br label %121

121:                                              ; preds = %158, %95
  %122 = load i32, ptr %15, align 4, !tbaa !75
  %123 = load i32, ptr %6, align 4, !tbaa !75
  %124 = icmp slt i32 %122, %123
  br i1 %124, label %126, label %125

125:                                              ; preds = %121
  store i32 8, ptr %14, align 4
  call void @llvm.lifetime.end.p0(i64 4, ptr %15) #2
  br label %161

126:                                              ; preds = %121
  %127 = load ptr, ptr %8, align 8, !tbaa !135
  %128 = load i32, ptr %15, align 4, !tbaa !75
  %129 = sext i32 %128 to i64
  %130 = getelementptr inbounds i8, ptr %127, i64 %129
  %131 = load i8, ptr %130, align 1, !tbaa !45, !range !46, !noundef !47
  %132 = trunc i8 %131 to i1
  %133 = zext i1 %132 to i32
  %134 = load ptr, ptr %9, align 8, !tbaa !206
  %135 = load i32, ptr %15, align 4, !tbaa !75
  %136 = sext i32 %135 to i64
  %137 = getelementptr inbounds i32, ptr %134, i64 %136
  %138 = load i32, ptr %137, align 4, !tbaa !75
  %139 = add nsw i32 %138, %133
  store i32 %139, ptr %137, align 4, !tbaa !75
  %140 = load i32, ptr %12, align 4, !tbaa !75
  %141 = load ptr, ptr %9, align 8, !tbaa !206
  %142 = load i32, ptr %15, align 4, !tbaa !75
  %143 = sext i32 %142 to i64
  %144 = getelementptr inbounds i32, ptr %141, i64 %143
  %145 = load i32, ptr %144, align 4, !tbaa !75
  %146 = add i32 %140, %145
  %147 = load ptr, ptr %3, align 8, !tbaa !206
  %148 = load i32, ptr %11, align 4, !tbaa !75
  %149 = sext i32 %148 to i64
  %150 = getelementptr inbounds i32, ptr %147, i64 %149
  store i32 %146, ptr %150, align 4, !tbaa !75
  %151 = load ptr, ptr %3, align 8, !tbaa !206
  %152 = load i32, ptr %11, align 4, !tbaa !75
  %153 = sext i32 %152 to i64
  %154 = getelementptr inbounds i32, ptr %151, i64 %153
  %155 = load i32, ptr %154, align 4, !tbaa !75
  store i32 %155, ptr %12, align 4, !tbaa !75
  %156 = load i32, ptr %11, align 4, !tbaa !75
  %157 = add nsw i32 %156, 1
  store i32 %157, ptr %11, align 4, !tbaa !75
  br label %158

158:                                              ; preds = %126
  %159 = load i32, ptr %15, align 4, !tbaa !75
  %160 = add nsw i32 %159, 1
  store i32 %160, ptr %15, align 4, !tbaa !75
  br label %121, !llvm.loop !228

161:                                              ; preds = %125
  br label %162

162:                                              ; preds = %161
  %163 = load i32, ptr %13, align 4, !tbaa !75
  %164 = add nsw i32 %163, 1
  store i32 %164, ptr %13, align 4, !tbaa !75
  br label %90, !llvm.loop !229

165:                                              ; preds = %94
  %166 = load ptr, ptr %9, align 8, !tbaa !206
  %167 = icmp eq ptr %166, null
  br i1 %167, label %169, label %168

168:                                              ; preds = %165
  call void @_ZdaPv(ptr noundef %166) #19
  br label %169

169:                                              ; preds = %168, %165
  store i32 1, ptr %14, align 4
  call void @llvm.lifetime.end.p0(i64 4, ptr %12) #2
  call void @llvm.lifetime.end.p0(i64 4, ptr %11) #2
  call void @llvm.lifetime.end.p0(i64 8, ptr %9) #2
  call void @llvm.lifetime.end.p0(i64 8, ptr %8) #2
  call void @llvm.lifetime.end.p0(i64 4, ptr %7) #2
  call void @llvm.lifetime.end.p0(i64 4, ptr %6) #2
  call void @llvm.lifetime.end.p0(i64 8, ptr %5) #2
  ret void
}