; Function Attrs: mustprogress uwtable
define hidden void @_ZN5zxing6qrcode12QRCodeReader15initIntegralOldEPjNS_3RefINS_9BitMatrixEEE(ptr noundef captures(none) initializes((0, 4)) %0, ptr noundef readonly captures(none) %1) local_unnamed_addr #2 align 2 {
  %3 = load ptr, ptr %1, align 8, !tbaa !42
  %4 = tail call noundef i32 @_ZNK5zxing9BitMatrix8getWidthEv(ptr noundef nonnull align 8 dereferenceable(346) %3)
  %5 = load ptr, ptr %1, align 8, !tbaa !42
  %6 = tail call noundef i32 @_ZNK5zxing9BitMatrix9getHeightEv(ptr noundef nonnull align 8 dereferenceable(346) %5)
  %7 = tail call noundef ptr @_ZN5zxing9BitMatrix13getRowBoolPtrEi(ptr noundef nonnull align 8 dereferenceable(346) %3, i32 noundef 0)
  %8 = load i8, ptr %7, align 1, !tbaa !58, !range !147, !noundef !148
  %9 = zext nneg i8 %8 to i32
  store i32 %9, ptr %0, align 4, !tbaa !155
  %10 = sext i32 %4 to i64
  %11 = icmp slt i32 %4, 0
  %12 = shl nsw i64 %10, 2
  %13 = select i1 %11, i64 -1, i64 %12
  %14 = tail call noalias noundef nonnull ptr @_Znam(i64 noundef %13) #22
  tail call void @llvm.memset.p0.i64(ptr nonnull align 4 %14, i8 0, i64 %12, i1 false)
  store i32 %9, ptr %0, align 4, !tbaa !155
  %15 = icmp sgt i32 %4, 1
  br i1 %15, label %.lr.ph.preheader, label %.preheader.thread

.lr.ph.preheader:                                 ; preds = %2
  %wide.trip.count = zext nneg i32 %4 to i64
  %load_initial = load i32, ptr %0, align 4
  br label %.lr.ph

.preheader:                                       ; preds = %.lr.ph
  %16 = icmp sgt i32 %6, 1
  br i1 %16, label %.lr.ph60.us.preheader, label %._crit_edge64

.preheader.thread:                                ; preds = %2
  %17 = icmp sgt i32 %6, 1
  br i1 %17, label %.lr.ph63.split.preheader, label %._crit_edge64

.lr.ph63.split.preheader:                         ; preds = %.preheader.thread
  %wide.trip.count70 = zext nneg i32 %6 to i64
  br label %.lr.ph63.split

.lr.ph60.us.preheader:                            ; preds = %.preheader
  %wide.trip.count86 = zext nneg i32 %6 to i64
  %wide.trip.count81 = zext nneg i32 %4 to i64
  br label %.lr.ph60.us

.lr.ph60.us:                                      ; preds = %.lr.ph60.us.preheader, %._crit_edge.us
  %indvars.iv83 = phi i64 [ 1, %.lr.ph60.us.preheader ], [ %indvars.iv.next84, %._crit_edge.us ]
  %indvars.iv74 = phi i32 [ %4, %.lr.ph60.us.preheader ], [ %indvars.iv.next75, %._crit_edge.us ]
  %.05261.us = phi i32 [ 0, %.lr.ph60.us.preheader ], [ %36, %._crit_edge.us ]
  %18 = zext i32 %indvars.iv74 to i64
  %19 = mul nuw nsw i64 %indvars.iv83, %10
  %20 = trunc nuw nsw i64 %indvars.iv83 to i32
  %21 = tail call noundef ptr @_ZN5zxing9BitMatrix13getRowBoolPtrEi(ptr noundef nonnull align 8 dereferenceable(346) %3, i32 noundef %20)
  %22 = sub nsw i64 %19, %10
  %23 = getelementptr inbounds i32, ptr %0, i64 %22
  %24 = load i32, ptr %23, align 4, !tbaa !155
  %25 = load i8, ptr %21, align 1, !tbaa !58, !range !147, !noundef !148
  %26 = zext nneg i8 %25 to i32
  %27 = add i32 %24, %26
  %28 = getelementptr inbounds nuw i32, ptr %0, i64 %19
  store i32 %27, ptr %28, align 4, !tbaa !155
  br label %29

29:                                               ; preds = %.lr.ph60.us, %29
  %indvars.iv76 = phi i64 [ %18, %.lr.ph60.us ], [ %indvars.iv.next77, %29 ]
  %indvars.iv72 = phi i64 [ 1, %.lr.ph60.us ], [ %indvars.iv.next73, %29 ]
  %.158.us = phi i32 [ %.05261.us, %.lr.ph60.us ], [ %36, %29 ]
  %indvars.iv.next77 = add nuw nsw i64 %indvars.iv76, 1
  %30 = getelementptr inbounds nuw i8, ptr %21, i64 %indvars.iv72
  %31 = load i8, ptr %30, align 1, !tbaa !58, !range !147, !noundef !148
  %32 = zext nneg i8 %31 to i32
  %33 = getelementptr inbounds nuw i32, ptr %14, i64 %indvars.iv72
  %34 = load i32, ptr %33, align 4, !tbaa !155
  %35 = add nsw i32 %34, %32
  store i32 %35, ptr %33, align 4, !tbaa !155
  %36 = add i32 %35, %.158.us
  %37 = getelementptr inbounds nuw i32, ptr %0, i64 %indvars.iv.next77
  store i32 %36, ptr %37, align 4, !tbaa !155
  %indvars.iv.next73 = add nuw nsw i64 %indvars.iv72, 1
  %exitcond82.not = icmp eq i64 %indvars.iv.next73, %wide.trip.count81
  br i1 %exitcond82.not, label %._crit_edge.us, label %29, !llvm.loop !193

._crit_edge.us:                                   ; preds = %29
  %indvars.iv.next84 = add nuw nsw i64 %indvars.iv83, 1
  %indvars.iv.next75 = add i32 %indvars.iv74, %4
  %exitcond87.not = icmp eq i64 %indvars.iv.next84, %wide.trip.count86
  br i1 %exitcond87.not, label %._crit_edge64, label %.lr.ph60.us, !llvm.loop !194

.lr.ph:                                           ; preds = %.lr.ph.preheader, %.lr.ph
  %store_forwarded = phi i32 [ %load_initial, %.lr.ph.preheader ], [ %42, %.lr.ph ]
  %indvars.iv = phi i64 [ 1, %.lr.ph.preheader ], [ %indvars.iv.next, %.lr.ph ]
  %38 = getelementptr i32, ptr %0, i64 %indvars.iv
  %39 = getelementptr inbounds nuw i8, ptr %7, i64 %indvars.iv
  %40 = load i8, ptr %39, align 1, !tbaa !58, !range !147, !noundef !148
  %41 = zext nneg i8 %40 to i32
  %42 = add i32 %store_forwarded, %41
  store i32 %42, ptr %38, align 4, !tbaa !155
  %43 = getelementptr inbounds nuw i32, ptr %14, i64 %indvars.iv
  %44 = load i32, ptr %43, align 4, !tbaa !155
  %45 = add nsw i32 %44, %41
  store i32 %45, ptr %43, align 4, !tbaa !155
  %indvars.iv.next = add nuw nsw i64 %indvars.iv, 1
  %exitcond.not = icmp eq i64 %indvars.iv.next, %wide.trip.count
  br i1 %exitcond.not, label %.preheader, label %.lr.ph, !llvm.loop !195

.lr.ph63.split:                                   ; preds = %.lr.ph63.split.preheader, %.lr.ph63.split
  %indvars.iv67 = phi i64 [ 1, %.lr.ph63.split.preheader ], [ %indvars.iv.next68, %.lr.ph63.split ]
  %46 = mul nsw i64 %indvars.iv67, %10
  %47 = trunc nuw nsw i64 %indvars.iv67 to i32
  %48 = tail call noundef ptr @_ZN5zxing9BitMatrix13getRowBoolPtrEi(ptr noundef nonnull align 8 dereferenceable(346) %3, i32 noundef %47)
  %49 = sub nsw i64 %46, %10
  %50 = getelementptr inbounds i32, ptr %0, i64 %49
  %51 = load i32, ptr %50, align 4, !tbaa !155
  %52 = load i8, ptr %48, align 1, !tbaa !58, !range !147, !noundef !148
  %53 = zext nneg i8 %52 to i32
  %54 = add i32 %51, %53
  %55 = getelementptr inbounds i32, ptr %0, i64 %46
  store i32 %54, ptr %55, align 4, !tbaa !155
  %indvars.iv.next68 = add nuw nsw i64 %indvars.iv67, 1
  %exitcond71.not = icmp eq i64 %indvars.iv.next68, %wide.trip.count70
  br i1 %exitcond71.not, label %._crit_edge64, label %.lr.ph63.split, !llvm.loop !194

._crit_edge64:                                    ; preds = %.lr.ph63.split, %._crit_edge.us, %.preheader.thread, %.preheader
  tail call void @_ZdaPv(ptr noundef nonnull %14) #21
  ret void
}